target datalayout = "e-m:e-p270:32:32-p271:32:32-p272:64:64-i64:64-i128:128-f80:128-n8:16:32:64-S128"
target triple = "x86_64-pc-linux-gnu"

%struct.BOX = type { %struct.Point, %struct.Point }
%struct.Point = type { double, double }
%union.anon.1 = type { float }

; Function Attrs: nounwind uwtable
define internal i64 @part_bits32_by2(i32 noundef %0) #0 {
  %2 = alloca i32, align 4
  %3 = alloca i64, align 8
  store i32 %0, ptr %2, align 4
  call void @llvm.lifetime.start.p0(i64 8, ptr %3) #10
  %4 = load i32, ptr %2, align 4
  %5 = zext i32 %4 to i64
  store i64 %5, ptr %3, align 8
  %6 = load i64, ptr %3, align 8
  %7 = load i64, ptr %3, align 8
  %8 = shl i64 %7, 16
  %9 = or i64 %6, %8
  %10 = and i64 %9, 281470681808895
  store i64 %10, ptr %3, align 8
  %11 = load i64, ptr %3, align 8
  %12 = load i64, ptr %3, align 8
  %13 = shl i64 %12, 8
  %14 = or i64 %11, %13
  %15 = and i64 %14, 71777214294589695
  store i64 %15, ptr %3, align 8
  %16 = load i64, ptr %3, align 8
  %17 = load i64, ptr %3, align 8
  %18 = shl i64 %17, 4
  %19 = or i64 %16, %18
  %20 = and i64 %19, 1085102592571150095
  store i64 %20, ptr %3, align 8
  %21 = load i64, ptr %3, align 8
  %22 = load i64, ptr %3, align 8
  %23 = shl i64 %22, 2
  %24 = or i64 %21, %23
  %25 = and i64 %24, 3689348814741910323
  store i64 %25, ptr %3, align 8
  %26 = load i64, ptr %3, align 8
  %27 = load i64, ptr %3, align 8
  %28 = shl i64 %27, 1
  %29 = or i64 %26, %28
  %30 = and i64 %29, 6148914691236517205
  store i64 %30, ptr %3, align 8
  %31 = load i64, ptr %3, align 8
  call void @llvm.lifetime.end.p0(i64 8, ptr %3) #10
  ret i64 %31
}

; Function Attrs: nounwind uwtable
define internal i32 @ieee_float32_to_uint32(float noundef %0) #0 {
  %2 = alloca i32, align 4
  %3 = alloca float, align 4
  %4 = alloca %union.anon.1, align 4
  store float %0, ptr %3, align 4
  %5 = load float, ptr %3, align 4
  %6 = call i1 @llvm.is.fpclass.f32(float %5, i32 3)
  br i1 %6, label %7, label %8

7:                                                ; preds = %1
  store i32 -1, ptr %2, align 4
  br label %21

8:                                                ; preds = %1
  call void @llvm.lifetime.start.p0(i64 4, ptr %4) #10
  %9 = load float, ptr %3, align 4
  store float %9, ptr %4, align 4
  %10 = load i32, ptr %4, align 4
  %11 = and i32 %10, -2147483648
  %12 = icmp ne i32 %11, 0
  br i1 %12, label %13, label %16

13:                                               ; preds = %8
  %14 = load i32, ptr %4, align 4
  %15 = xor i32 %14, -1
  store i32 %15, ptr %4, align 4
  br label %19

16:                                               ; preds = %8
  %17 = load i32, ptr %4, align 4
  %18 = or i32 %17, -2147483648
  store i32 %18, ptr %4, align 4
  br label %19

19:                                               ; preds = %16, %13
  %20 = load i32, ptr %4, align 4
  store i32 %20, ptr %2, align 4
  call void @llvm.lifetime.end.p0(i64 4, ptr %4) #10
  br label %21

21:                                               ; preds = %19, %7
  %22 = load i32, ptr %2, align 4
  ret i32 %22
}

; Function Attrs: inlinehint nounwind uwtable
define internal ptr @DatumGetPointer(i64 noundef %0) #2 {
  %2 = alloca i64, align 8
  store i64 %0, ptr %2, align 8
  %3 = load i64, ptr %2, align 8
  %4 = inttoptr i64 %3 to ptr
  ret ptr %4
}

; Function Attrs: nounwind uwtable
define internal i64 @point_zorder_internal(float noundef %0, float noundef %1) #0 {
  %3 = alloca float, align 4
  %4 = alloca float, align 4
  %5 = alloca i32, align 4
  %6 = alloca i32, align 4
  store float %0, ptr %3, align 4
  store float %1, ptr %4, align 4
  call void @llvm.lifetime.start.p0(i64 4, ptr %5) #10
  %7 = load float, ptr %3, align 4
  %8 = call i32 @ieee_float32_to_uint32(float noundef %7)
  store i32 %8, ptr %5, align 4
  call void @llvm.lifetime.start.p0(i64 4, ptr %6) #10
  %9 = load float, ptr %4, align 4
  %10 = call i32 @ieee_float32_to_uint32(float noundef %9)
  store i32 %10, ptr %6, align 4
  %11 = load i32, ptr %5, align 4
  %12 = call i64 @part_bits32_by2(i32 noundef %11)
  %13 = load i32, ptr %6, align 4
  %14 = call i64 @part_bits32_by2(i32 noundef %13)
  %15 = shl i64 %14, 1
  %16 = or i64 %12, %15
  call void @llvm.lifetime.end.p0(i64 4, ptr %6) #10
  call void @llvm.lifetime.end.p0(i64 4, ptr %5) #10
  ret i64 %16
}

; Function Attrs: inlinehint nounwind uwtable
define internal ptr @DatumGetBoxP(i64 noundef %0) #2 {
  %2 = alloca i64, align 8
  store i64 %0, ptr %2, align 8
  %3 = load i64, ptr %2, align 8
  %4 = call ptr @DatumGetPointer(i64 noundef %3)
  ret ptr %4
}

; Function Attrs: nounwind uwtable
define internal i32 @gist_bbox_zorder_cmp(i64 noundef %0, i64 noundef %1, ptr noundef %2) #0 {
  %4 = alloca i32, align 4
  %5 = alloca i64, align 8
  %6 = alloca i64, align 8
  %7 = alloca ptr, align 8
  %8 = alloca ptr, align 8
  %9 = alloca ptr, align 8
  %10 = alloca i64, align 8
  %11 = alloca i64, align 8
  %12 = alloca i32, align 4
  store i64 %0, ptr %5, align 8
  store i64 %1, ptr %6, align 8
  store ptr %2, ptr %7, align 8
  call void @llvm.lifetime.start.p0(i64 8, ptr %8) #10
  %13 = load i64, ptr %5, align 8
  %14 = call ptr @DatumGetBoxP(i64 noundef %13)
  %15 = getelementptr inbounds nuw %struct.BOX, ptr %14, i32 0, i32 1
  store ptr %15, ptr %8, align 8
  call void @llvm.lifetime.start.p0(i64 8, ptr %9) #10
  %16 = load i64, ptr %6, align 8
  %17 = call ptr @DatumGetBoxP(i64 noundef %16)
  %18 = getelementptr inbounds nuw %struct.BOX, ptr %17, i32 0, i32 1
  store ptr %18, ptr %9, align 8
  call void @llvm.lifetime.start.p0(i64 8, ptr %10) #10
  call void @llvm.lifetime.start.p0(i64 8, ptr %11) #10
  %19 = load ptr, ptr %8, align 8
  %20 = getelementptr inbounds nuw %struct.Point, ptr %19, i32 0, i32 0
  %21 = load double, ptr %20, align 8
  %22 = load ptr, ptr %9, align 8
  %23 = getelementptr inbounds nuw %struct.Point, ptr %22, i32 0, i32 0
  %24 = load double, ptr %23, align 8
  %25 = fcmp oeq double %21, %24
  br i1 %25, label %26, label %35

26:                                               ; preds = %3
  %27 = load ptr, ptr %8, align 8
  %28 = getelementptr inbounds nuw %struct.Point, ptr %27, i32 0, i32 1
  %29 = load double, ptr %28, align 8
  %30 = load ptr, ptr %9, align 8
  %31 = getelementptr inbounds nuw %struct.Point, ptr %30, i32 0, i32 1
  %32 = load double, ptr %31, align 8
  %33 = fcmp oeq double %29, %32
  br i1 %33, label %34, label %35

34:                                               ; preds = %26
  store i32 0, ptr %4, align 4
  store i32 1, ptr %12, align 4
  br label %64

35:                                               ; preds = %26, %3
  %36 = load ptr, ptr %8, align 8
  %37 = getelementptr inbounds nuw %struct.Point, ptr %36, i32 0, i32 0
  %38 = load double, ptr %37, align 8
  %39 = fptrunc double %38 to float
  %40 = load ptr, ptr %8, align 8
  %41 = getelementptr inbounds nuw %struct.Point, ptr %40, i32 0, i32 1
  %42 = load double, ptr %41, align 8
  %43 = fptrunc double %42 to float
  %44 = call i64 @point_zorder_internal(float noundef %39, float noundef %43)
  store i64 %44, ptr %10, align 8
  %45 = load ptr, ptr %9, align 8
  %46 = getelementptr inbounds nuw %struct.Point, ptr %45, i32 0, i32 0
  %47 = load double, ptr %46, align 8
  %48 = fptrunc double %47 to float
  %49 = load ptr, ptr %9, align 8
  %50 = getelementptr inbounds nuw %struct.Point, ptr %49, i32 0, i32 1
  %51 = load double, ptr %50, align 8
  %52 = fptrunc double %51 to float
  %53 = call i64 @point_zorder_internal(float noundef %48, float noundef %52)
  store i64 %53, ptr %11, align 8
  %54 = load i64, ptr %10, align 8
  %55 = load i64, ptr %11, align 8
  %56 = icmp ugt i64 %54, %55
  br i1 %56, label %57, label %58

57:                                               ; preds = %35
  store i32 1, ptr %4, align 4
  store i32 1, ptr %12, align 4
  br label %64

58:                                               ; preds = %35
  %59 = load i64, ptr %10, align 8
  %60 = load i64, ptr %11, align 8
  %61 = icmp ult i64 %59, %60
  br i1 %61, label %62, label %63

62:                                               ; preds = %58
  store i32 -1, ptr %4, align 4
  store i32 1, ptr %12, align 4
  br label %64

63:                                               ; preds = %58
  store i32 0, ptr %4, align 4
  store i32 1, ptr %12, align 4
  br label %64

64:                                               ; preds = %63, %62, %57, %34
  call void @llvm.lifetime.end.p0(i64 8, ptr %11) #10
  call void @llvm.lifetime.end.p0(i64 8, ptr %10) #10
  call void @llvm.lifetime.end.p0(i64 8, ptr %9) #10
  call void @llvm.lifetime.end.p0(i64 8, ptr %8) #10
  %65 = load i32, ptr %4, align 4
  ret i32 %65
}