; Function Attrs: mustprogress nofree norecurse nosync nounwind willreturn memory(read, inaccessiblemem: none) uwtable
define internal range(i32 -1, 2) i32 @gist_bbox_zorder_cmp(i64 noundef %0, i64 noundef %1, ptr readnone captures(none) %2) #9 {
  %4 = inttoptr i64 %0 to ptr
  %5 = getelementptr inbounds nuw i8, ptr %4, i64 16
  %6 = inttoptr i64 %1 to ptr
  %7 = getelementptr inbounds nuw i8, ptr %6, i64 16
  %8 = load double, ptr %5, align 8
  %9 = load double, ptr %7, align 8
  %10 = fcmp oeq double %8, %9
  %11 = getelementptr inbounds nuw i8, ptr %4, i64 24
  %12 = load double, ptr %11, align 8
  br i1 %10, label %13, label %._crit_edge

13:                                               ; preds = %3
  %14 = getelementptr inbounds nuw i8, ptr %6, i64 24
  %15 = load double, ptr %14, align 8
  %16 = fcmp oeq double %12, %15
  br i1 %16, label %118, label %._crit_edge

._crit_edge:                                      ; preds = %3, %13
  %17 = fptrunc double %8 to float
  %18 = fptrunc double %12 to float
  %19 = fcmp uno float %17, 0.000000e+00
  br i1 %19, label %ieee_float32_to_uint32.exit.i, label %20

20:                                               ; preds = %._crit_edge
  %21 = bitcast float %17 to i32
  %22 = xor i32 %21, -1
  %23 = fneg float %17
  %24 = bitcast float %23 to i32
  %.not5.i.i = icmp slt i32 %21, 0
  %.sroa.0.0.i.i = select i1 %.not5.i.i, i32 %22, i32 %24
  %25 = zext i32 %.sroa.0.0.i.i to i64
  br label %ieee_float32_to_uint32.exit.i

ieee_float32_to_uint32.exit.i:                    ; preds = %20, %._crit_edge
  %.0.i.i = phi i64 [ %25, %20 ], [ 4294967295, %._crit_edge ]
  %26 = fcmp uno float %18, 0.000000e+00
  br i1 %26, label %point_zorder_internal.exit, label %27

27:                                               ; preds = %ieee_float32_to_uint32.exit.i
  %28 = bitcast float %18 to i32
  %29 = xor i32 %28, -1
  %30 = fneg float %18
  %31 = bitcast float %30 to i32
  %.not5.i3.i = icmp slt i32 %28, 0
  %.sroa.0.0.i4.i = select i1 %.not5.i3.i, i32 %29, i32 %31
  %32 = zext i32 %.sroa.0.0.i4.i to i64
  br label %point_zorder_internal.exit

point_zorder_internal.exit:                       ; preds = %ieee_float32_to_uint32.exit.i, %27
  %.0.i5.i = phi i64 [ %32, %27 ], [ 4294967295, %ieee_float32_to_uint32.exit.i ]
  %33 = shl nuw nsw i64 %.0.i.i, 16
  %34 = or i64 %33, %.0.i.i
  %35 = and i64 %34, 281470681808895
  %36 = shl nuw nsw i64 %35, 8
  %37 = or i64 %36, %35
  %38 = and i64 %37, 71777214294589695
  %39 = shl nuw nsw i64 %38, 4
  %40 = or i64 %39, %38
  %41 = and i64 %40, 1085102592571150095
  %42 = shl nuw nsw i64 %41, 2
  %43 = or i64 %42, %41
  %44 = and i64 %43, 3689348814741910323
  %45 = shl nuw nsw i64 %44, 1
  %46 = or i64 %45, %44
  %47 = and i64 %46, 6148914691236517205
  %48 = shl nuw nsw i64 %.0.i5.i, 16
  %49 = or i64 %48, %.0.i5.i
  %50 = and i64 %49, 281470681808895
  %51 = shl nuw nsw i64 %50, 8
  %52 = or i64 %51, %50
  %53 = and i64 %52, 71777214294589695
  %54 = shl nuw nsw i64 %53, 4
  %55 = or i64 %54, %53
  %56 = and i64 %55, 1085102592571150095
  %57 = shl nuw nsw i64 %56, 2
  %58 = or i64 %57, %56
  %59 = and i64 %58, 3689348814741910323
  %60 = shl nuw i64 %59, 2
  %61 = shl nuw nsw i64 %59, 1
  %62 = or i64 %60, %61
  %63 = and i64 %62, -6148914691236517206
  %64 = or disjoint i64 %63, %47
  %65 = fptrunc double %9 to float
  %66 = getelementptr inbounds nuw i8, ptr %6, i64 24
  %67 = load double, ptr %66, align 8
  %68 = fptrunc double %67 to float
  %69 = fcmp uno float %65, 0.000000e+00
  br i1 %69, label %ieee_float32_to_uint32.exit.i18, label %70

70:                                               ; preds = %point_zorder_internal.exit
  %71 = bitcast float %65 to i32
  %72 = xor i32 %71, -1
  %73 = fneg float %65
  %74 = bitcast float %73 to i32
  %.not5.i.i16 = icmp slt i32 %71, 0
  %.sroa.0.0.i.i17 = select i1 %.not5.i.i16, i32 %72, i32 %74
  %75 = zext i32 %.sroa.0.0.i.i17 to i64
  br label %ieee_float32_to_uint32.exit.i18

ieee_float32_to_uint32.exit.i18:                  ; preds = %70, %point_zorder_internal.exit
  %.0.i.i19 = phi i64 [ %75, %70 ], [ 4294967295, %point_zorder_internal.exit ]
  %76 = fcmp uno float %68, 0.000000e+00
  br i1 %76, label %point_zorder_internal.exit23, label %77

77:                                               ; preds = %ieee_float32_to_uint32.exit.i18
  %78 = bitcast float %68 to i32
  %79 = xor i32 %78, -1
  %80 = fneg float %68
  %81 = bitcast float %80 to i32
  %.not5.i3.i20 = icmp slt i32 %78, 0
  %.sroa.0.0.i4.i21 = select i1 %.not5.i3.i20, i32 %79, i32 %81
  %82 = zext i32 %.sroa.0.0.i4.i21 to i64
  br label %point_zorder_internal.exit23

point_zorder_internal.exit23:                     ; preds = %ieee_float32_to_uint32.exit.i18, %77
  %.0.i5.i22 = phi i64 [ %82, %77 ], [ 4294967295, %ieee_float32_to_uint32.exit.i18 ]
  %83 = shl nuw nsw i64 %.0.i.i19, 16
  %84 = or i64 %83, %.0.i.i19
  %85 = and i64 %84, 281470681808895
  %86 = shl nuw nsw i64 %85, 8
  %87 = or i64 %86, %85
  %88 = and i64 %87, 71777214294589695
  %89 = shl nuw nsw i64 %88, 4
  %90 = or i64 %89, %88
  %91 = and i64 %90, 1085102592571150095
  %92 = shl nuw nsw i64 %91, 2
  %93 = or i64 %92, %91
  %94 = and i64 %93, 3689348814741910323
  %95 = shl nuw nsw i64 %94, 1
  %96 = or i64 %95, %94
  %97 = and i64 %96, 6148914691236517205
  %98 = shl nuw nsw i64 %.0.i5.i22, 16
  %99 = or i64 %98, %.0.i5.i22
  %100 = and i64 %99, 281470681808895
  %101 = shl nuw nsw i64 %100, 8
  %102 = or i64 %101, %100
  %103 = and i64 %102, 71777214294589695
  %104 = shl nuw nsw i64 %103, 4
  %105 = or i64 %104, %103
  %106 = and i64 %105, 1085102592571150095
  %107 = shl nuw nsw i64 %106, 2
  %108 = or i64 %107, %106
  %109 = and i64 %108, 3689348814741910323
  %110 = shl nuw i64 %109, 2
  %111 = shl nuw nsw i64 %109, 1
  %112 = or i64 %110, %111
  %113 = and i64 %112, -6148914691236517206
  %114 = or disjoint i64 %113, %97
  %115 = icmp ugt i64 %64, %114
  br i1 %115, label %118, label %116

116:                                              ; preds = %point_zorder_internal.exit23
  %117 = icmp ult i64 %64, %114
  %. = sext i1 %117 to i32
  br label %118

118:                                              ; preds = %116, %point_zorder_internal.exit23, %13
  %.0 = phi i32 [ 0, %13 ], [ 1, %point_zorder_internal.exit23 ], [ %., %116 ]
  ret i32 %.0
}